; ModuleID = '7/116.c'
source_filename = "7/116.c"
target datalayout = "e-m:e-p270:32:32-p271:32:32-p272:64:64-i64:64-f80:128-n8:16:32:64-S128"
target triple = "x86_64-pc-linux-gnu"

@.str = private unnamed_addr constant [3 x i8] c"%s\00", align 1

; Function Attrs: noinline nounwind uwtable
define dso_local i32 @main() #0 {
  %1 = alloca i32, align 4
  %2 = alloca [256 x i8], align 16
  %3 = alloca [256 x i8], align 16
  %4 = alloca [256 x i8], align 16
  %5 = alloca i8, align 1
  %6 = alloca i32, align 4
  %7 = alloca i32, align 4
  %8 = alloca i32, align 4
  %9 = alloca i32, align 4
  %10 = alloca i32, align 4
  %11 = alloca i32, align 4
  %12 = alloca i32, align 4
  store i32 0, i32* %1, align 4
  store i32 0, i32* %12, align 4
  %13 = getelementptr inbounds [256 x i8], [256 x i8]* %2, i64 0, i64 0
  %14 = call i32 (i8*, ...) @__isoc99_scanf(i8* getelementptr inbounds ([3 x i8], [3 x i8]* @.str, i64 0, i64 0), i8* %13)
  %15 = getelementptr inbounds [256 x i8], [256 x i8]* %3, i64 0, i64 0
  %16 = call i32 (i8*, ...) @__isoc99_scanf(i8* getelementptr inbounds ([3 x i8], [3 x i8]* @.str, i64 0, i64 0), i8* %15)
  %17 = getelementptr inbounds [256 x i8], [256 x i8]* %4, i64 0, i64 0
  %18 = call i32 (i8*, ...) @__isoc99_scanf(i8* getelementptr inbounds ([3 x i8], [3 x i8]* @.str, i64 0, i64 0), i8* %17)
  %19 = getelementptr inbounds [256 x i8], [256 x i8]* %2, i64 0, i64 0
  %20 = call i64 @strlen(i8* %19) #3
  %21 = trunc i64 %20 to i32
  store i32 %21, i32* %7, align 4
  %22 = getelementptr inbounds [256 x i8], [256 x i8]* %3, i64 0, i64 0
  %23 = call i64 @strlen(i8* %22) #3
  %24 = trunc i64 %23 to i32
  store i32 %24, i32* %9, align 4
  %25 = getelementptr inbounds [256 x i8], [256 x i8]* %4, i64 0, i64 0
  %26 = call i64 @strlen(i8* %25) #3
  %27 = trunc i64 %26 to i32
  store i32 %27, i32* %10, align 4
  store i32 0, i32* %6, align 4
  br label %28

28:                                               ; preds = %104, %0
  %29 = load i32, i32* %6, align 4
  %30 = load i32, i32* %7, align 4
  %31 = icmp slt i32 %29, %30
  br i1 %31, label %32, label %107

32:                                               ; preds = %28
  %33 = load i32, i32* %12, align 4
  %34 = icmp eq i32 %33, 0
  br i1 %34, label %35, label %103

35:                                               ; preds = %32
  store i32 0, i32* %11, align 4
  %36 = load i32, i32* %6, align 4
  %37 = sext i32 %36 to i64
  %38 = getelementptr inbounds [256 x i8], [256 x i8]* %2, i64 0, i64 %37
  %39 = load i8, i8* %38, align 1
  %40 = sext i8 %39 to i32
  %41 = getelementptr inbounds [256 x i8], [256 x i8]* %3, i64 0, i64 0
  %42 = load i8, i8* %41, align 16
  %43 = sext i8 %42 to i32
  %44 = icmp eq i32 %40, %43
  br i1 %44, label %45, label %102

45:                                               ; preds = %35
  %46 = load i32, i32* %11, align 4
  %47 = add nsw i32 %46, 1
  store i32 %47, i32* %11, align 4
  %48 = load i32, i32* %6, align 4
  %49 = add nsw i32 %48, 1
  store i32 %49, i32* %8, align 4
  br label %50

50:                                               ; preds = %72, %45
  %51 = load i32, i32* %8, align 4
  %52 = load i32, i32* %6, align 4
  %53 = load i32, i32* %9, align 4
  %54 = add nsw i32 %52, %53
  %55 = icmp slt i32 %51, %54
  br i1 %55, label %56, label %75

56:                                               ; preds = %50
  %57 = load i32, i32* %8, align 4
  %58 = sext i32 %57 to i64
  %59 = getelementptr inbounds [256 x i8], [256 x i8]* %2, i64 0, i64 %58
  %60 = load i8, i8* %59, align 1
  %61 = sext i8 %60 to i32
  %62 = load i32, i32* %11, align 4
  %63 = sext i32 %62 to i64
  %64 = getelementptr inbounds [256 x i8], [256 x i8]* %3, i64 0, i64 %63
  %65 = load i8, i8* %64, align 1
  %66 = sext i8 %65 to i32
  %67 = icmp eq i32 %61, %66
  br i1 %67, label %68, label %71

68:                                               ; preds = %56
  %69 = load i32, i32* %11, align 4
  %70 = add nsw i32 %69, 1
  store i32 %70, i32* %11, align 4
  br label %71

71:                                               ; preds = %68, %56
  br label %72

72:                                               ; preds = %71
  %73 = load i32, i32* %8, align 4
  %74 = add nsw i32 %73, 1
  store i32 %74, i32* %8, align 4
  br label %50

75:                                               ; preds = %50
  %76 = load i32, i32* %11, align 4
  %77 = load i32, i32* %9, align 4
  %78 = icmp eq i32 %76, %77
  br i1 %78, label %79, label %101

79:                                               ; preds = %75
  store i32 1, i32* %12, align 4
  %80 = load i32, i32* %6, align 4
  store i32 %80, i32* %8, align 4
  br label %81

81:                                               ; preds = %97, %79
  %82 = load i32, i32* %8, align 4
  %83 = load i32, i32* %6, align 4
  %84 = load i32, i32* %9, align 4
  %85 = add nsw i32 %83, %84
  %86 = icmp slt i32 %82, %85
  br i1 %86, label %87, label %100

87:                                               ; preds = %81
  %88 = load i32, i32* %8, align 4
  %89 = load i32, i32* %6, align 4
  %90 = sub nsw i32 %88, %89
  %91 = sext i32 %90 to i64
  %92 = getelementptr inbounds [256 x i8], [256 x i8]* %4, i64 0, i64 %91
  %93 = load i8, i8* %92, align 1
  %94 = load i32, i32* %8, align 4
  %95 = sext i32 %94 to i64
  %96 = getelementptr inbounds [256 x i8], [256 x i8]* %2, i64 0, i64 %95
  store i8 %93, i8* %96, align 1
  br label %97

97:                                               ; preds = %87
  %98 = load i32, i32* %8, align 4
  %99 = add nsw i32 %98, 1
  store i32 %99, i32* %8, align 4
  br label %81

100:                                              ; preds = %81
  br label %101

101:                                              ; preds = %100, %75
  br label %102

102:                                              ; preds = %101, %35
  br label %103

103:                                              ; preds = %102, %32
  br label %104

104:                                              ; preds = %103
  %105 = load i32, i32* %6, align 4
  %106 = add nsw i32 %105, 1
  store i32 %106, i32* %6, align 4
  br label %28

107:                                              ; preds = %28
  %108 = getelementptr inbounds [256 x i8], [256 x i8]* %2, i64 0, i64 0
  %109 = call i32 (i8*, ...) @printf(i8* getelementptr inbounds ([3 x i8], [3 x i8]* @.str, i64 0, i64 0), i8* %108)
  ret i32 0
}

declare dso_local i32 @__isoc99_scanf(i8*, ...) #1

; Function Attrs: nounwind readonly
declare dso_local i64 @strlen(i8*) #2

declare dso_local i32 @printf(i8*, ...) #1


!llvm.module.flags = !{!0}
!llvm.ident = !{!1}

!0 = !{i32 1, !"wchar_size", i32 4}
!1 = !{!"clang version 10.0.0-4ubuntu1 "}
