; ModuleID = 'source-C-CXX/6/116.c'
source_filename = "source-C-CXX/6/116.c"
target datalayout = "e-m:e-p270:32:32-p271:32:32-p272:64:64-i64:64-f80:128-n8:16:32:64-S128"
target triple = "x86_64-pc-linux-gnu"

@.str = private unnamed_addr constant [3 x i8] c"%s\00", align 1

; Function Attrs: nofree nounwind sspstrong uwtable
define dso_local i32 @main() local_unnamed_addr #0 {
  %1 = alloca [256 x i8], align 16
  %2 = alloca [256 x i8], align 16
  %3 = alloca [256 x i8], align 16
  %4 = getelementptr inbounds [256 x i8], [256 x i8]* %3, i64 0, i64 0
  %5 = getelementptr inbounds [256 x i8], [256 x i8]* %1, i64 0, i64 0
  call void @llvm.lifetime.start.p0i8(i64 256, i8* nonnull %5) #6
  %6 = getelementptr inbounds [256 x i8], [256 x i8]* %2, i64 0, i64 0
  call void @llvm.lifetime.start.p0i8(i64 256, i8* nonnull %6) #6
  %7 = getelementptr inbounds [256 x i8], [256 x i8]* %3, i64 0, i64 0
  call void @llvm.lifetime.start.p0i8(i64 256, i8* nonnull %7) #6
  %8 = call i32 (i8*, ...) @__isoc99_scanf(i8* getelementptr inbounds ([3 x i8], [3 x i8]* @.str, i64 0, i64 0), i8* nonnull %5)
  %9 = call i32 (i8*, ...) @__isoc99_scanf(i8* getelementptr inbounds ([3 x i8], [3 x i8]* @.str, i64 0, i64 0), i8* nonnull %6)
  %10 = call i32 (i8*, ...) @__isoc99_scanf(i8* getelementptr inbounds ([3 x i8], [3 x i8]* @.str, i64 0, i64 0), i8* nonnull %7)
  %11 = call i64 @strlen(i8* noundef nonnull %5) #7
  %12 = trunc i64 %11 to i32
  %13 = call i64 @strlen(i8* noundef nonnull %6) #7
  %14 = trunc i64 %13 to i32
  %15 = load i8, i8* %6, align 16
  %16 = icmp sgt i32 %12, 0
  br i1 %16, label %17, label %68

17:                                               ; preds = %0
  %18 = and i64 %11, 4294967295
  %19 = icmp sgt i32 %14, 1
  %20 = icmp slt i32 %14, 1
  br label %21

21:                                               ; preds = %17, %64
  %22 = phi i64 [ 0, %17 ], [ %28, %64 ]
  %23 = phi i64 [ 1, %17 ], [ %66, %64 ]
  %24 = phi i32 [ 0, %17 ], [ %65, %64 ]
  %25 = getelementptr [256 x i8], [256 x i8]* %1, i64 0, i64 %22
  %26 = add i64 %13, %22
  %27 = trunc i64 %26 to i32
  %28 = add nuw nsw i64 %22, 1
  %29 = trunc i64 %28 to i32
  %30 = call i32 @llvm.smax.i32(i32 %27, i32 %29)
  %31 = trunc i64 %22 to i32
  %32 = xor i32 %31, -1
  %33 = add i32 %30, %32
  %34 = zext i32 %33 to i64
  %35 = add nuw nsw i64 %34, 1
  %36 = icmp eq i32 %24, 0
  br i1 %36, label %37, label %64

37:                                               ; preds = %21
  %38 = load i8, i8* %25, align 1, !tbaa !5
  %39 = icmp eq i8 %38, %15
  br i1 %39, label %40, label %64

40:                                               ; preds = %37
  %41 = trunc i64 %22 to i32
  %42 = add nsw i32 %41, %14
  br i1 %19, label %43, label %57

43:                                               ; preds = %40, %43
  %44 = phi i64 [ %54, %43 ], [ %23, %40 ]
  %45 = phi i32 [ %53, %43 ], [ 1, %40 ]
  %46 = getelementptr inbounds [256 x i8], [256 x i8]* %1, i64 0, i64 %44
  %47 = load i8, i8* %46, align 1, !tbaa !5
  %48 = zext i32 %45 to i64
  %49 = getelementptr inbounds [256 x i8], [256 x i8]* %2, i64 0, i64 %48
  %50 = load i8, i8* %49, align 1, !tbaa !5
  %51 = icmp eq i8 %47, %50
  %52 = zext i1 %51 to i32
  %53 = add nuw nsw i32 %45, %52
  %54 = add nuw nsw i64 %44, 1
  %55 = trunc i64 %54 to i32
  %56 = icmp sgt i32 %42, %55
  br i1 %56, label %43, label %57, !llvm.loop !8

57:                                               ; preds = %43, %40
  %58 = phi i32 [ 1, %40 ], [ %53, %43 ]
  %59 = icmp ne i32 %58, %14
  %60 = or i1 %59, %20
  %61 = xor i1 %59, true
  %62 = zext i1 %61 to i32
  br i1 %60, label %64, label %63

63:                                               ; preds = %57
  call void @llvm.memcpy.p0i8.p0i8.i64(i8* noundef nonnull align 1 %25, i8* noundef nonnull align 16 %4, i64 %35, i1 false)
  br label %64

64:                                               ; preds = %57, %63, %21, %37
  %65 = phi i32 [ %62, %57 ], [ 0, %37 ], [ 1, %21 ], [ 1, %63 ]
  %66 = add nuw nsw i64 %23, 1
  %67 = icmp eq i64 %28, %18
  br i1 %67, label %68, label %21, !llvm.loop !10

68:                                               ; preds = %64, %0
  %69 = call i32 (i8*, ...) @printf(i8* nonnull dereferenceable(1) getelementptr inbounds ([3 x i8], [3 x i8]* @.str, i64 0, i64 0), i8* nonnull %5)
  call void @llvm.lifetime.end.p0i8(i64 256, i8* nonnull %7) #6
  call void @llvm.lifetime.end.p0i8(i64 256, i8* nonnull %6) #6
  call void @llvm.lifetime.end.p0i8(i64 256, i8* nonnull %5) #6
  ret i32 0
}

; Function Attrs: argmemonly mustprogress nofree nosync nounwind willreturn
declare void @llvm.lifetime.start.p0i8(i64 immarg, i8* nocapture) #1

; Function Attrs: nofree nounwind
declare noundef i32 @__isoc99_scanf(i8* nocapture noundef readonly, ...) local_unnamed_addr #2

; Function Attrs: argmemonly mustprogress nofree nounwind readonly willreturn
declare i64 @strlen(i8* nocapture) local_unnamed_addr #3

; Function Attrs: nofree nounwind
declare noundef i32 @printf(i8* nocapture noundef readonly, ...) local_unnamed_addr #2

; Function Attrs: argmemonly mustprogress nofree nosync nounwind willreturn
declare void @llvm.lifetime.end.p0i8(i64 immarg, i8* nocapture) #1

; Function Attrs: nofree nosync nounwind readnone speculatable willreturn
declare i32 @llvm.smax.i32(i32, i32) #4

; Function Attrs: argmemonly nofree nounwind willreturn
declare void @llvm.memcpy.p0i8.p0i8.i64(i8* noalias nocapture writeonly, i8* noalias nocapture readonly, i64, i1 immarg) #5


!llvm.module.flags = !{!0, !1, !2, !3}
!llvm.ident = !{!4}

!0 = !{i32 1, !"wchar_size", i32 4}
!1 = !{i32 7, !"PIC Level", i32 2}
!2 = !{i32 7, !"PIE Level", i32 2}
!3 = !{i32 7, !"uwtable", i32 1}
!4 = !{!"clang version 13.0.0"}
!5 = !{!6, !6, i64 0}
!6 = !{!"omnipotent char", !7, i64 0}
!7 = !{!"Simple C/C++ TBAA"}
!8 = distinct !{!8, !9}
!9 = !{!"llvm.loop.mustprogress"}
!10 = distinct !{!10, !9}
